target datalayout = "e-m:e-p270:32:32-p271:32:32-p272:64:64-i64:64-i128:128-f80:128-n8:16:32:64-S128"
target triple = "x86_64-pc-linux-gnu"

%struct.shm_mq_iovec = type { ptr, i64 }

@pq_mq_handle = internal global ptr null, align 8
@pq_mq_parallel_leader_pid = internal global i32 0, align 4
@pq_mq_parallel_leader_proc_number = internal global i32 -1, align 4
@pq_mq_busy = internal global i8 0, align 1
@MyLatch = external global ptr, align 8
@InterruptPending = external global i32, align 4

; Function Attrs: nounwind uwtable
define internal i32 @mq_putmessage(i8 noundef signext %0, ptr noundef %1, i64 noundef %2) #0 {
  %4 = alloca i32, align 4
  %5 = alloca i8, align 1
  %6 = alloca ptr, align 8
  %7 = alloca i64, align 8
  %8 = alloca [2 x %struct.shm_mq_iovec], align 16
  %9 = alloca i32, align 4
  %10 = alloca i32, align 4
  store i8 %0, ptr %5, align 1
  store ptr %1, ptr %6, align 8
  store i64 %2, ptr %7, align 8
  call void @llvm.lifetime.start.p0(i64 32, ptr %8) #7
  call void @llvm.lifetime.start.p0(i64 4, ptr %9) #7
  %11 = load i8, ptr @pq_mq_busy, align 1, !range !6, !noundef !7
  %12 = trunc i8 %11 to i1
  br i1 %12, label %13, label %19

13:                                               ; preds = %3
  %14 = load ptr, ptr @pq_mq_handle, align 8
  %15 = icmp ne ptr %14, null
  br i1 %15, label %16, label %18

16:                                               ; preds = %13
  %17 = load ptr, ptr @pq_mq_handle, align 8
  call void @shm_mq_detach(ptr noundef %17)
  br label %18

18:                                               ; preds = %16, %13
  store ptr null, ptr @pq_mq_handle, align 8
  store i32 -1, ptr %4, align 4
  store i32 1, ptr %10, align 4
  br label %75

19:                                               ; preds = %3
  %20 = load ptr, ptr @pq_mq_handle, align 8
  %21 = icmp eq ptr %20, null
  br i1 %21, label %22, label %23

22:                                               ; preds = %19
  store i32 0, ptr %4, align 4
  store i32 1, ptr %10, align 4
  br label %75

23:                                               ; preds = %19
  store i8 1, ptr @pq_mq_busy, align 1
  %24 = getelementptr inbounds [2 x %struct.shm_mq_iovec], ptr %8, i64 0, i64 0
  %25 = getelementptr inbounds nuw %struct.shm_mq_iovec, ptr %24, i32 0, i32 0
  store ptr %5, ptr %25, align 16
  %26 = getelementptr inbounds [2 x %struct.shm_mq_iovec], ptr %8, i64 0, i64 0
  %27 = getelementptr inbounds nuw %struct.shm_mq_iovec, ptr %26, i32 0, i32 1
  store i64 1, ptr %27, align 8
  %28 = load ptr, ptr %6, align 8
  %29 = getelementptr inbounds [2 x %struct.shm_mq_iovec], ptr %8, i64 0, i64 1
  %30 = getelementptr inbounds nuw %struct.shm_mq_iovec, ptr %29, i32 0, i32 0
  store ptr %28, ptr %30, align 16
  %31 = load i64, ptr %7, align 8
  %32 = getelementptr inbounds [2 x %struct.shm_mq_iovec], ptr %8, i64 0, i64 1
  %33 = getelementptr inbounds nuw %struct.shm_mq_iovec, ptr %32, i32 0, i32 1
  store i64 %31, ptr %33, align 8
  br label %34

34:                                               ; preds = %69, %23
  %35 = load ptr, ptr @pq_mq_handle, align 8
  %36 = getelementptr inbounds [2 x %struct.shm_mq_iovec], ptr %8, i64 0, i64 0
  %37 = call i32 @shm_mq_sendv(ptr noundef %35, ptr noundef %36, i32 noundef 2, i1 noundef zeroext true, i1 noundef zeroext true)
  store i32 %37, ptr %9, align 4
  %38 = load i32, ptr @pq_mq_parallel_leader_pid, align 4
  %39 = icmp ne i32 %38, 0
  br i1 %39, label %40, label %51

40:                                               ; preds = %34
  %41 = call zeroext i1 @IsLogicalParallelApplyWorker()
  br i1 %41, label %42, label %46

42:                                               ; preds = %40
  %43 = load i32, ptr @pq_mq_parallel_leader_pid, align 4
  %44 = load i32, ptr @pq_mq_parallel_leader_proc_number, align 4
  %45 = call i32 @SendProcSignal(i32 noundef %43, i32 noundef 6, i32 noundef %44)
  br label %50

46:                                               ; preds = %40
  %47 = load i32, ptr @pq_mq_parallel_leader_pid, align 4
  %48 = load i32, ptr @pq_mq_parallel_leader_proc_number, align 4
  %49 = call i32 @SendProcSignal(i32 noundef %47, i32 noundef 2, i32 noundef %48)
  br label %50

50:                                               ; preds = %46, %42
  br label %51

51:                                               ; preds = %50, %34
  %52 = load i32, ptr %9, align 4
  %53 = icmp ne i32 %52, 1
  br i1 %53, label %54, label %55

54:                                               ; preds = %51
  br label %70

55:                                               ; preds = %51
  %56 = load ptr, ptr @MyLatch, align 8
  %57 = call i32 @WaitLatch(ptr noundef %56, i32 noundef 33, i64 noundef 0, i32 noundef 134217762)
  %58 = load ptr, ptr @MyLatch, align 8
  call void @ResetLatch(ptr noundef %58)
  br label %59

59:                                               ; preds = %55
  %60 = load volatile i32, ptr @InterruptPending, align 4
  %61 = icmp ne i32 %60, 0
  %62 = zext i1 %61 to i32
  %63 = sext i32 %62 to i64
  %64 = call i64 @llvm.expect.i64(i64 %63, i64 0)
  %65 = icmp ne i64 %64, 0
  br i1 %65, label %66, label %67

66:                                               ; preds = %59
  call void @ProcessInterrupts()
  br label %67

67:                                               ; preds = %66, %59
  br label %68

68:                                               ; preds = %67
  br label %69

69:                                               ; preds = %68
  br label %34

70:                                               ; preds = %54
  store i8 0, ptr @pq_mq_busy, align 1
  %71 = load i32, ptr %9, align 4
  %72 = icmp ne i32 %71, 0
  br i1 %72, label %73, label %74

73:                                               ; preds = %70
  store i32 -1, ptr %4, align 4
  store i32 1, ptr %10, align 4
  br label %75

74:                                               ; preds = %70
  store i32 0, ptr %4, align 4
  store i32 1, ptr %10, align 4
  br label %75

75:                                               ; preds = %74, %73, %22, %18
  call void @llvm.lifetime.end.p0(i64 4, ptr %9) #7
  call void @llvm.lifetime.end.p0(i64 32, ptr %8) #7
  %76 = load i32, ptr %4, align 4
  ret i32 %76
}