; Function Attrs: nounwind uwtable
define internal range(i32 -1, 1) i32 @mq_putmessage(i8 noundef signext %0, ptr noundef %1, i64 noundef %2) #0 {
  %4 = alloca i8, align 1
  %5 = alloca [2 x %struct.shm_mq_iovec], align 16
  store i8 %0, ptr %4, align 1
  call void @llvm.lifetime.start.p0(i64 32, ptr nonnull %5) #10
  %.b6 = load i1, ptr @pq_mq_busy, align 1
  %6 = load ptr, ptr @pq_mq_handle, align 8
  %.not10 = icmp eq ptr %6, null
  br i1 %.b6, label %7, label %10

7:                                                ; preds = %3
  br i1 %.not10, label %9, label %8

8:                                                ; preds = %7
  tail call void @shm_mq_detach(ptr noundef nonnull %6) #10
  br label %9

9:                                                ; preds = %8, %7
  store ptr null, ptr @pq_mq_handle, align 8
  br label %32

10:                                               ; preds = %3
  br i1 %.not10, label %32, label %11

11:                                               ; preds = %10
  store i1 true, ptr @pq_mq_busy, align 1
  store ptr %4, ptr %5, align 16
  %12 = getelementptr inbounds nuw i8, ptr %5, i64 8
  store i64 1, ptr %12, align 8
  %13 = getelementptr inbounds nuw i8, ptr %5, i64 16
  store ptr %1, ptr %13, align 16
  %14 = getelementptr inbounds nuw i8, ptr %5, i64 24
  store i64 %2, ptr %14, align 8
  br label %15

15:                                               ; preds = %30, %11
  %16 = phi ptr [ %.pre, %30 ], [ %6, %11 ]
  %17 = call i32 @shm_mq_sendv(ptr noundef %16, ptr noundef nonnull %5, i32 noundef 2, i1 noundef zeroext true, i1 noundef zeroext true) #10
  %18 = load i32, ptr @pq_mq_parallel_leader_pid, align 4
  %.not = icmp eq i32 %18, 0
  br i1 %.not, label %23, label %.sink.split

.sink.split:                                      ; preds = %15
  %19 = call zeroext i1 @IsLogicalParallelApplyWorker() #10
  %20 = load i32, ptr @pq_mq_parallel_leader_pid, align 4
  %21 = load i32, ptr @pq_mq_parallel_leader_proc_number, align 4
  %.11 = select i1 %19, i32 6, i32 2
  %22 = call i32 @SendProcSignal(i32 noundef %20, i32 noundef %.11, i32 noundef %21) #10
  br label %23

23:                                               ; preds = %.sink.split, %15
  %.not7 = icmp eq i32 %17, 1
  br i1 %.not7, label %24, label %31

24:                                               ; preds = %23
  %25 = load ptr, ptr @MyLatch, align 8
  %26 = call i32 @WaitLatch(ptr noundef %25, i32 noundef 33, i64 noundef 0, i32 noundef 134217762) #10
  %27 = load ptr, ptr @MyLatch, align 8
  call void @ResetLatch(ptr noundef %27) #10
  %28 = load volatile i32, ptr @InterruptPending, align 4
  %.not8 = icmp eq i32 %28, 0
  br i1 %.not8, label %30, label %29, !prof !4

29:                                               ; preds = %24
  call void @ProcessInterrupts() #10
  br label %30

30:                                               ; preds = %29, %24
  %.pre = load ptr, ptr @pq_mq_handle, align 8
  br label %15

31:                                               ; preds = %23
  store i1 false, ptr @pq_mq_busy, align 1
  %.not9 = icmp ne i32 %17, 0
  %. = sext i1 %.not9 to i32
  br label %32

32:                                               ; preds = %31, %10, %9
  %.0 = phi i32 [ -1, %9 ], [ 0, %10 ], [ %., %31 ]
  call void @llvm.lifetime.end.p0(i64 32, ptr nonnull %5) #10
  ret i32 %.0
}